target datalayout = "e-m:e-p270:32:32-p271:32:32-p272:64:64-i64:64-i128:128-f80:128-n8:16:32:64-S128"
target triple = "x86_64-pc-linux-gnu"

%struct._psqlSettings = type { ptr, i32, ptr, i8, ptr, ptr, %struct.printQueryOpt, ptr, ptr, ptr, i8, i8, i32, i32, ptr, ptr, i8, [4 x ptr], i8, i32, ptr, i8, i32, ptr, ptr, i64, i64, i8, ptr, ptr, ptr, i8, i8, i8, i8, i8, i8, i8, i32, i32, i32, i32, i32, i32, i32, i32, ptr, ptr, ptr, i32, i8, i32 }
%struct.printQueryOpt = type { %struct.printTableOpt, ptr, ptr, ptr, i8, ptr, i32 }
%struct.printTableOpt = type { i32, i16, i32, i32, i16, i16, i32, i8, i8, i8, i8, i64, ptr, %struct.separator, %struct.separator, [2 x i8], i8, ptr, i32, i32, i32, i32, i32, i32 }
%struct.separator = type { ptr, i8 }
%struct.PQExpBufferData = type { ptr, i64, i64 }

@pset = external global %struct._psqlSettings, align 8
@.str.2 = private unnamed_addr constant [5 x i8] c"Name\00", align 1
@.str.6 = private unnamed_addr constant [12 x i8] c"Description\00", align 1
@.str.23 = private unnamed_addr constant [12 x i8] c"ORDER BY 1;\00", align 1
@.str.26 = private unnamed_addr constant [6 x i8] c"Owner\00", align 1
@.str.32 = private unnamed_addr constant [5 x i8] c"Size\00", align 1
@.str.129 = private unnamed_addr constant [131 x i8] c"SELECT\0A  d.datname as \22%s\22,\0A  pg_catalog.pg_get_userbyid(d.datdba) as \22%s\22,\0A  pg_catalog.pg_encoding_to_char(d.encoding) as \22%s\22,\0A\00", align 1
@.str.130 = private unnamed_addr constant [9 x i8] c"Encoding\00", align 1
@.str.131 = private unnamed_addr constant [103 x i8] c"  CASE d.datlocprovider WHEN 'b' THEN 'builtin' WHEN 'c' THEN 'libc' WHEN 'i' THEN 'icu' END AS \22%s\22,\0A\00", align 1
@.str.132 = private unnamed_addr constant [16 x i8] c"Locale Provider\00", align 1
@.str.133 = private unnamed_addr constant [19 x i8] c"  'libc' AS \22%s\22,\0A\00", align 1
@.str.134 = private unnamed_addr constant [47 x i8] c"  d.datcollate as \22%s\22,\0A  d.datctype as \22%s\22,\0A\00", align 1
@.str.135 = private unnamed_addr constant [8 x i8] c"Collate\00", align 1
@.str.136 = private unnamed_addr constant [6 x i8] c"Ctype\00", align 1
@.str.137 = private unnamed_addr constant [24 x i8] c"  d.datlocale as \22%s\22,\0A\00", align 1
@.str.138 = private unnamed_addr constant [7 x i8] c"Locale\00", align 1
@.str.139 = private unnamed_addr constant [27 x i8] c"  d.daticulocale as \22%s\22,\0A\00", align 1
@.str.140 = private unnamed_addr constant [17 x i8] c"  NULL as \22%s\22,\0A\00", align 1
@.str.141 = private unnamed_addr constant [26 x i8] c"  d.daticurules as \22%s\22,\0A\00", align 1
@.str.142 = private unnamed_addr constant [10 x i8] c"ICU Rules\00", align 1
@.str.143 = private unnamed_addr constant [3 x i8] c"  \00", align 1
@.str.144 = private unnamed_addr constant [9 x i8] c"d.datacl\00", align 1
@.str.146 = private unnamed_addr constant [11 x i8] c"Tablespace\00", align 1
@.str.147 = private unnamed_addr constant [32 x i8] c"\0AFROM pg_catalog.pg_database d\0A\00", align 1
@.str.148 = private unnamed_addr constant [62 x i8] c"  JOIN pg_catalog.pg_tablespace t on d.dattablespace = t.oid\0A\00", align 1
@.str.149 = private unnamed_addr constant [10 x i8] c"d.datname\00", align 1
@.str.150 = private unnamed_addr constant [18 x i8] c"List of databases\00", align 1
@.str.167 = private unnamed_addr constant [18 x i8] c"Access privileges\00", align 1
@.str.912 = private unnamed_addr constant [52 x i8] c"improper qualified name (too many dotted names): %s\00", align 1
@.str.913 = private unnamed_addr constant [47 x i8] c"You are currently not connected to a database.\00", align 1
@.str.914 = private unnamed_addr constant [50 x i8] c"cross-database references are not implemented: %s\00", align 1
@.str.916 = private unnamed_addr constant [110 x i8] c"CASE WHEN pg_catalog.array_length(%s, 1) = 0 THEN '%s' ELSE pg_catalog.array_to_string(%s, E'\\n') END AS \22%s\22\00", align 1
@.str.917 = private unnamed_addr constant [7 x i8] c"(none)\00", align 1

; Function Attrs: nounwind uwtable
define internal zeroext i1 @validateSQLNamePattern(ptr noundef %0, ptr noundef %1, i1 noundef zeroext %2, i1 noundef zeroext %3, ptr noundef %4, ptr noundef %5, ptr noundef %6, ptr noundef %7, ptr noundef %8, i32 noundef %9) #0 {
  %11 = alloca i1, align 1
  %12 = alloca ptr, align 8
  %13 = alloca ptr, align 8
  %14 = alloca i8, align 1
  %15 = alloca i8, align 1
  %16 = alloca ptr, align 8
  %17 = alloca ptr, align 8
  %18 = alloca ptr, align 8
  %19 = alloca ptr, align 8
  %20 = alloca ptr, align 8
  %21 = alloca i32, align 4
  %22 = alloca %struct.PQExpBufferData, align 8
  %23 = alloca i32, align 4
  %24 = alloca i8, align 1
  %25 = alloca i32, align 4
  store ptr %0, ptr %12, align 8
  store ptr %1, ptr %13, align 8
  %26 = zext i1 %2 to i8
  store i8 %26, ptr %14, align 1
  %27 = zext i1 %3 to i8
  store i8 %27, ptr %15, align 1
  store ptr %4, ptr %16, align 8
  store ptr %5, ptr %17, align 8
  store ptr %6, ptr %18, align 8
  store ptr %7, ptr %19, align 8
  store ptr %8, ptr %20, align 8
  store i32 %9, ptr %21, align 4
  call void @llvm.lifetime.start.p0(i64 24, ptr %22) #8
  call void @llvm.lifetime.start.p0(i64 4, ptr %23) #8
  call void @llvm.lifetime.start.p0(i64 1, ptr %24) #8
  call void @initPQExpBuffer(ptr noundef %22)
  %28 = load ptr, ptr @pset, align 8
  %29 = load ptr, ptr %12, align 8
  %30 = load ptr, ptr %13, align 8
  %31 = load i8, ptr %14, align 1, !range !4, !noundef !5
  %32 = trunc i8 %31 to i1
  %33 = load i8, ptr %15, align 1, !range !4, !noundef !5
  %34 = trunc i8 %33 to i1
  %35 = load ptr, ptr %16, align 8
  %36 = load ptr, ptr %17, align 8
  %37 = load ptr, ptr %18, align 8
  %38 = load ptr, ptr %19, align 8
  %39 = call zeroext i1 @processSQLNamePattern(ptr noundef %28, ptr noundef %29, ptr noundef %30, i1 noundef zeroext %32, i1 noundef zeroext %34, ptr noundef %35, ptr noundef %36, ptr noundef %37, ptr noundef %38, ptr noundef %22, ptr noundef %23)
  %40 = zext i1 %39 to i8
  store i8 %40, ptr %24, align 1
  %41 = load ptr, ptr %20, align 8
  %42 = icmp ne ptr %41, null
  br i1 %42, label %43, label %48

43:                                               ; preds = %10
  %44 = load i8, ptr %24, align 1, !range !4, !noundef !5
  %45 = trunc i8 %44 to i1
  %46 = load ptr, ptr %20, align 8
  %47 = zext i1 %45 to i8
  store i8 %47, ptr %46, align 1
  br label %48

48:                                               ; preds = %43, %10
  %49 = load i32, ptr %23, align 4
  %50 = load i32, ptr %21, align 4
  %51 = icmp sge i32 %49, %50
  br i1 %51, label %52, label %54

52:                                               ; preds = %48
  %53 = load ptr, ptr %13, align 8
  call void (i32, i32, ptr, ...) @pg_log_generic(i32 noundef 4, i32 noundef 0, ptr noundef @.str.912, ptr noundef %53)
  br label %78

54:                                               ; preds = %48
  %55 = load i32, ptr %21, align 4
  %56 = icmp sgt i32 %55, 1
  br i1 %56, label %57, label %77

57:                                               ; preds = %54
  %58 = load i32, ptr %23, align 4
  %59 = load i32, ptr %21, align 4
  %60 = sub i32 %59, 1
  %61 = icmp eq i32 %58, %60
  br i1 %61, label %62, label %77

62:                                               ; preds = %57
  %63 = load ptr, ptr @pset, align 8
  %64 = call ptr @PQdb(ptr noundef %63)
  %65 = icmp eq ptr %64, null
  br i1 %65, label %66, label %67

66:                                               ; preds = %62
  call void (i32, i32, ptr, ...) @pg_log_generic(i32 noundef 4, i32 noundef 0, ptr noundef @.str.913)
  br label %78

67:                                               ; preds = %62
  %68 = load ptr, ptr @pset, align 8
  %69 = call ptr @PQdb(ptr noundef %68)
  %70 = getelementptr inbounds nuw %struct.PQExpBufferData, ptr %22, i32 0, i32 0
  %71 = load ptr, ptr %70, align 8
  %72 = call i32 @strcmp(ptr noundef %69, ptr noundef %71) #9
  %73 = icmp ne i32 %72, 0
  br i1 %73, label %74, label %76

74:                                               ; preds = %67
  %75 = load ptr, ptr %13, align 8
  call void (i32, i32, ptr, ...) @pg_log_generic(i32 noundef 4, i32 noundef 0, ptr noundef @.str.914, ptr noundef %75)
  br label %78

76:                                               ; preds = %67
  br label %77

77:                                               ; preds = %76, %57, %54
  call void @termPQExpBuffer(ptr noundef %22)
  store i1 true, ptr %11, align 1
  store i32 1, ptr %25, align 4
  br label %79

78:                                               ; preds = %74, %66, %52
  call void @termPQExpBuffer(ptr noundef %22)
  store i1 false, ptr %11, align 1
  store i32 1, ptr %25, align 4
  br label %79

79:                                               ; preds = %78, %77
  call void @llvm.lifetime.end.p0(i64 1, ptr %24) #8
  call void @llvm.lifetime.end.p0(i64 4, ptr %23) #8
  call void @llvm.lifetime.end.p0(i64 24, ptr %22) #8
  %80 = load i1, ptr %11, align 1
  ret i1 %80
}

; Function Attrs: nounwind uwtable
define internal void @printACLColumn(ptr noundef %0, ptr noundef %1) #0 {
  %3 = alloca ptr, align 8
  %4 = alloca ptr, align 8
  store ptr %0, ptr %3, align 8
  store ptr %1, ptr %4, align 8
  %5 = load ptr, ptr %3, align 8
  %6 = load ptr, ptr %4, align 8
  %7 = load ptr, ptr %4, align 8
  call void (ptr, ptr, ...) @appendPQExpBuffer(ptr noundef %5, ptr noundef @.str.916, ptr noundef %6, ptr noundef @.str.917, ptr noundef %7, ptr noundef @.str.167)
  ret void
}

; Function Attrs: nounwind uwtable
define dso_local zeroext i1 @listAllDbs(ptr noundef %0, i1 noundef zeroext %1) #0 {
  %3 = alloca i1, align 1
  %4 = alloca ptr, align 8
  %5 = alloca i8, align 1
  %6 = alloca ptr, align 8
  %7 = alloca %struct.PQExpBufferData, align 8
  %8 = alloca %struct.printQueryOpt, align 8
  %9 = alloca i32, align 4
  store ptr %0, ptr %4, align 8
  %10 = zext i1 %1 to i8
  store i8 %10, ptr %5, align 1
  call void @llvm.lifetime.start.p0(i64 8, ptr %6) #8
  call void @llvm.lifetime.start.p0(i64 24, ptr %7) #8
  call void @llvm.lifetime.start.p0(i64 168, ptr %8) #8
  call void @llvm.memcpy.p0.p0.i64(ptr align 8 %8, ptr align 8 getelementptr inbounds nuw (%struct._psqlSettings, ptr @pset, i32 0, i32 6), i64 168, i1 false)
  call void @initPQExpBuffer(ptr noundef %7)
  call void (ptr, ptr, ...) @printfPQExpBuffer(ptr noundef %7, ptr noundef @.str.129, ptr noundef @.str.2, ptr noundef @.str.26, ptr noundef @.str.130)
  %11 = load i32, ptr getelementptr inbounds nuw (%struct._psqlSettings, ptr @pset, i32 0, i32 22), align 4
  %12 = icmp sge i32 %11, 150000
  br i1 %12, label %13, label %14

13:                                               ; preds = %2
  call void (ptr, ptr, ...) @appendPQExpBuffer(ptr noundef %7, ptr noundef @.str.131, ptr noundef @.str.132)
  br label %15

14:                                               ; preds = %2
  call void (ptr, ptr, ...) @appendPQExpBuffer(ptr noundef %7, ptr noundef @.str.133, ptr noundef @.str.132)
  br label %15

15:                                               ; preds = %14, %13
  call void (ptr, ptr, ...) @appendPQExpBuffer(ptr noundef %7, ptr noundef @.str.134, ptr noundef @.str.135, ptr noundef @.str.136)
  %16 = load i32, ptr getelementptr inbounds nuw (%struct._psqlSettings, ptr @pset, i32 0, i32 22), align 4
  %17 = icmp sge i32 %16, 170000
  br i1 %17, label %18, label %19

18:                                               ; preds = %15
  call void (ptr, ptr, ...) @appendPQExpBuffer(ptr noundef %7, ptr noundef @.str.137, ptr noundef @.str.138)
  br label %25

19:                                               ; preds = %15
  %20 = load i32, ptr getelementptr inbounds nuw (%struct._psqlSettings, ptr @pset, i32 0, i32 22), align 4
  %21 = icmp sge i32 %20, 150000
  br i1 %21, label %22, label %23

22:                                               ; preds = %19
  call void (ptr, ptr, ...) @appendPQExpBuffer(ptr noundef %7, ptr noundef @.str.139, ptr noundef @.str.138)
  br label %24

23:                                               ; preds = %19
  call void (ptr, ptr, ...) @appendPQExpBuffer(ptr noundef %7, ptr noundef @.str.140, ptr noundef @.str.138)
  br label %24

24:                                               ; preds = %23, %22
  br label %25

25:                                               ; preds = %24, %18
  %26 = load i32, ptr getelementptr inbounds nuw (%struct._psqlSettings, ptr @pset, i32 0, i32 22), align 4
  %27 = icmp sge i32 %26, 160000
  br i1 %27, label %28, label %29

28:                                               ; preds = %25
  call void (ptr, ptr, ...) @appendPQExpBuffer(ptr noundef %7, ptr noundef @.str.141, ptr noundef @.str.142)
  br label %30

29:                                               ; preds = %25
  call void (ptr, ptr, ...) @appendPQExpBuffer(ptr noundef %7, ptr noundef @.str.140, ptr noundef @.str.142)
  br label %30

30:                                               ; preds = %29, %28
  call void @appendPQExpBufferStr(ptr noundef %7, ptr noundef @.str.143)
  call void @printACLColumn(ptr noundef %7, ptr noundef @.str.144)
  %31 = load i8, ptr %5, align 1, !range !4, !noundef !5
  %32 = trunc i8 %31 to i1
  br i1 %32, label %33, label %34

33:                                               ; preds = %30
  call void (ptr, ptr, ...) @appendPQExpBuffer(ptr noundef %7, ptr noundef @.str.145, ptr noundef @.str.32, ptr noundef @.str.146, ptr noundef @.str.6)
  br label %34

34:                                               ; preds = %33, %30
  call void @appendPQExpBufferStr(ptr noundef %7, ptr noundef @.str.147)
  %35 = load i8, ptr %5, align 1, !range !4, !noundef !5
  %36 = trunc i8 %35 to i1
  br i1 %36, label %37, label %38

37:                                               ; preds = %34
  call void @appendPQExpBufferStr(ptr noundef %7, ptr noundef @.str.148)
  br label %38

38:                                               ; preds = %37, %34
  %39 = load ptr, ptr %4, align 8
  %40 = icmp ne ptr %39, null
  br i1 %40, label %41, label %46

41:                                               ; preds = %38
  %42 = load ptr, ptr %4, align 8
  %43 = call zeroext i1 @validateSQLNamePattern(ptr noundef %7, ptr noundef %42, i1 noundef zeroext false, i1 noundef zeroext false, ptr noundef null, ptr noundef @.str.149, ptr noundef null, ptr noundef null, ptr noundef null, i32 noundef 1)
  br i1 %43, label %45, label %44

44:                                               ; preds = %41
  call void @termPQExpBuffer(ptr noundef %7)
  store i1 false, ptr %3, align 1
  store i32 1, ptr %9, align 4
  br label %60

45:                                               ; preds = %41
  br label %46

46:                                               ; preds = %45, %38
  call void @appendPQExpBufferStr(ptr noundef %7, ptr noundef @.str.23)
  %47 = getelementptr inbounds nuw %struct.PQExpBufferData, ptr %7, i32 0, i32 0
  %48 = load ptr, ptr %47, align 8
  %49 = call ptr @PSQLexec(ptr noundef %48)
  store ptr %49, ptr %6, align 8
  call void @termPQExpBuffer(ptr noundef %7)
  %50 = load ptr, ptr %6, align 8
  %51 = icmp ne ptr %50, null
  br i1 %51, label %53, label %52

52:                                               ; preds = %46
  store i1 false, ptr %3, align 1
  store i32 1, ptr %9, align 4
  br label %60

53:                                               ; preds = %46
  %54 = getelementptr inbounds nuw %struct.printQueryOpt, ptr %8, i32 0, i32 2
  store ptr @.str.150, ptr %54, align 8
  %55 = getelementptr inbounds nuw %struct.printQueryOpt, ptr %8, i32 0, i32 4
  store i8 1, ptr %55, align 8
  %56 = load ptr, ptr %6, align 8
  %57 = load ptr, ptr getelementptr inbounds nuw (%struct._psqlSettings, ptr @pset, i32 0, i32 2), align 8
  %58 = load ptr, ptr getelementptr inbounds nuw (%struct._psqlSettings, ptr @pset, i32 0, i32 28), align 8
  call void @printQuery(ptr noundef %56, ptr noundef %8, ptr noundef %57, i1 noundef zeroext false, ptr noundef %58)
  %59 = load ptr, ptr %6, align 8
  call void @PQclear(ptr noundef %59)
  store i1 true, ptr %3, align 1
  store i32 1, ptr %9, align 4
  br label %60

60:                                               ; preds = %53, %52, %44
  call void @llvm.lifetime.end.p0(i64 168, ptr %8) #8
  call void @llvm.lifetime.end.p0(i64 24, ptr %7) #8
  call void @llvm.lifetime.end.p0(i64 8, ptr %6) #8
  %61 = load i1, ptr %3, align 1
  ret i1 %61
}