; Function Attrs: nounwind uwtable
define dso_local noundef zeroext i1 @listAllDbs(ptr noundef %0, i1 noundef zeroext %1) local_unnamed_addr #0 {
  %3 = alloca %struct.PQExpBufferData, align 8
  %4 = alloca i32, align 4
  %5 = alloca %struct.PQExpBufferData, align 8
  %6 = alloca %struct.printQueryOpt, align 8
  call void @llvm.lifetime.start.p0(i64 24, ptr nonnull %5) #8
  call void @llvm.lifetime.start.p0(i64 168, ptr nonnull %6) #8
  call void @llvm.memcpy.p0.p0.i64(ptr noundef nonnull align 8 dereferenceable(168) %6, ptr noundef nonnull align 8 dereferenceable(168) getelementptr inbounds nuw (i8, ptr @pset, i64 48), i64 168, i1 false)
  call void @initPQExpBuffer(ptr noundef nonnull %5) #8
  call void (ptr, ptr, ...) @printfPQExpBuffer(ptr noundef nonnull %5, ptr noundef nonnull @.str.129, ptr noundef nonnull @.str.2, ptr noundef nonnull @.str.26, ptr noundef nonnull @.str.130) #8
  %7 = load i32, ptr getelementptr inbounds nuw (i8, ptr @pset, i64 332), align 4
  %8 = icmp sgt i32 %7, 149999
  %.str.131..str.133 = select i1 %8, ptr @.str.131, ptr @.str.133
  call void (ptr, ptr, ...) @appendPQExpBuffer(ptr noundef nonnull %5, ptr noundef nonnull %.str.131..str.133, ptr noundef nonnull @.str.132) #8
  call void (ptr, ptr, ...) @appendPQExpBuffer(ptr noundef nonnull %5, ptr noundef nonnull @.str.134, ptr noundef nonnull @.str.135, ptr noundef nonnull @.str.136) #8
  %9 = load i32, ptr getelementptr inbounds nuw (i8, ptr @pset, i64 332), align 4
  %10 = icmp sgt i32 %9, 169999
  %11 = icmp sgt i32 %9, 149999
  %.str.139..str.140 = select i1 %11, ptr @.str.139, ptr @.str.140
  %.str.139.sink = select i1 %10, ptr @.str.137, ptr %.str.139..str.140
  call void (ptr, ptr, ...) @appendPQExpBuffer(ptr noundef nonnull %5, ptr noundef nonnull %.str.139.sink, ptr noundef nonnull @.str.138) #8
  %12 = load i32, ptr getelementptr inbounds nuw (i8, ptr @pset, i64 332), align 4
  %13 = icmp sgt i32 %12, 159999
  %.str.140.sink = select i1 %13, ptr @.str.141, ptr @.str.140
  call void (ptr, ptr, ...) @appendPQExpBuffer(ptr noundef nonnull %5, ptr noundef nonnull %.str.140.sink, ptr noundef nonnull @.str.142) #8
  call void @appendPQExpBufferStr(ptr noundef nonnull %5, ptr noundef nonnull @.str.143) #8
  call void (ptr, ptr, ...) @appendPQExpBuffer(ptr noundef nonnull %5, ptr noundef nonnull @.str.916, ptr noundef nonnull @.str.144, ptr noundef nonnull @.str.917, ptr noundef nonnull @.str.144, ptr noundef nonnull @.str.167) #8
  br i1 %1, label %14, label %.critedge

14:                                               ; preds = %2
  call void (ptr, ptr, ...) @appendPQExpBuffer(ptr noundef nonnull %5, ptr noundef nonnull @.str.145, ptr noundef nonnull @.str.32, ptr noundef nonnull @.str.146, ptr noundef nonnull @.str.6) #8
  call void @appendPQExpBufferStr(ptr noundef nonnull %5, ptr noundef nonnull @.str.147) #8
  br label %.critedge

.critedge:                                        ; preds = %2, %14
  %.str.147.sink = phi ptr [ @.str.148, %14 ], [ @.str.147, %2 ]
  call void @appendPQExpBufferStr(ptr noundef nonnull %5, ptr noundef nonnull %.str.147.sink) #8
  %.not = icmp eq ptr %0, null
  br i1 %.not, label %20, label %15

15:                                               ; preds = %.critedge
  call void @llvm.lifetime.start.p0(i64 24, ptr nonnull %3) #8
  call void @llvm.lifetime.start.p0(i64 4, ptr nonnull %4) #8
  call void @initPQExpBuffer(ptr noundef nonnull %3) #8
  %16 = load ptr, ptr @pset, align 8
  %17 = call zeroext i1 @processSQLNamePattern(ptr noundef %16, ptr noundef nonnull %5, ptr noundef nonnull %0, i1 noundef zeroext false, i1 noundef zeroext false, ptr noundef null, ptr noundef nonnull @.str.149, ptr noundef null, ptr noundef null, ptr noundef nonnull %3, ptr noundef nonnull %4) #8
  %18 = load i32, ptr %4, align 4
  %.not19.i = icmp slt i32 %18, 1
  br i1 %.not19.i, label %validateSQLNamePattern.exit.thread, label %19

validateSQLNamePattern.exit.thread:               ; preds = %15
  call void @termPQExpBuffer(ptr noundef nonnull %3) #8
  call void @llvm.lifetime.end.p0(i64 4, ptr nonnull %4) #8
  call void @llvm.lifetime.end.p0(i64 24, ptr nonnull %3) #8
  br label %20

19:                                               ; preds = %15
  call void (i32, i32, ptr, ...) @pg_log_generic(i32 noundef 4, i32 noundef 0, ptr noundef nonnull @.str.912, ptr noundef nonnull %0) #8
  call void @termPQExpBuffer(ptr noundef nonnull %3) #8
  call void @llvm.lifetime.end.p0(i64 4, ptr nonnull %4) #8
  call void @llvm.lifetime.end.p0(i64 24, ptr nonnull %3) #8
  call void @termPQExpBuffer(ptr noundef nonnull %5) #8
  br label %28

20:                                               ; preds = %validateSQLNamePattern.exit.thread, %.critedge
  call void @appendPQExpBufferStr(ptr noundef nonnull %5, ptr noundef nonnull @.str.23) #8
  %21 = load ptr, ptr %5, align 8
  %22 = call ptr @PSQLexec(ptr noundef %21) #8
  call void @termPQExpBuffer(ptr noundef nonnull %5) #8
  %.not10 = icmp eq ptr %22, null
  br i1 %.not10, label %28, label %23

23:                                               ; preds = %20
  %24 = getelementptr inbounds nuw i8, ptr %6, i64 128
  store ptr @.str.150, ptr %24, align 8
  %25 = getelementptr inbounds nuw i8, ptr %6, i64 144
  store i8 1, ptr %25, align 8
  %26 = load ptr, ptr getelementptr inbounds nuw (i8, ptr @pset, i64 16), align 8
  %27 = load ptr, ptr getelementptr inbounds nuw (i8, ptr @pset, i64 376), align 8
  call void @printQuery(ptr noundef nonnull %22, ptr noundef nonnull %6, ptr noundef %26, i1 noundef zeroext false, ptr noundef %27) #8
  call void @PQclear(ptr noundef nonnull %22) #8
  br label %28

28:                                               ; preds = %20, %23, %19
  %.0 = phi i1 [ true, %23 ], [ false, %19 ], [ false, %20 ]
  call void @llvm.lifetime.end.p0(i64 168, ptr nonnull %6) #8
  call void @llvm.lifetime.end.p0(i64 24, ptr nonnull %5) #8
  ret i1 %.0
}